; Function Attrs: mustprogress nofree norecurse nosync nounwind willreturn memory(argmem: readwrite) uwtable
define dso_local void @PHP_4HAVAL128Init(ptr noundef writeonly captures(none) initializes((0, 40), (168, 169), (170, 172), (176, 184)) %0, ptr readnone captures(none) %1) #0 {
  %3 = getelementptr inbounds nuw i8, ptr %0, i64 32
  %4 = getelementptr inbounds nuw i8, ptr %0, i64 36
  store i32 0, ptr %4, align 4, !tbaa !4
  store i32 0, ptr %3, align 8, !tbaa !4
  tail call void @llvm.memcpy.p0.p0.i64(ptr noundef nonnull align 4 dereferenceable(32) %0, ptr noundef nonnull align 16 dereferenceable(32) @D0, i64 32, i1 false), !tbaa !4
  %5 = getelementptr inbounds nuw i8, ptr %0, i64 168
  store i8 4, ptr %5, align 8, !tbaa !8
  %6 = getelementptr inbounds nuw i8, ptr %0, i64 170
  store i16 128, ptr %6, align 2, !tbaa !12
  %7 = getelementptr inbounds nuw i8, ptr %0, i64 176
  store ptr @PHP_4HAVALTransform, ptr %7, align 8, !tbaa !13
  ret void
}